target datalayout = "e-m:e-p270:32:32-p271:32:32-p272:64:64-i64:64-i128:128-f80:128-n8:16:32:64-S128"
target triple = "x86_64-pc-linux-gnu"

%struct.FunctionCallInfoBaseData = type { ptr, ptr, ptr, i32, i8, i16, [0 x %struct.NullableDatum] }
%struct.NullableDatum = type { i64, i8 }
%struct.TimeTzADT = type { i64, i32 }

@AdjustTimeForTypmod.TimeScales = internal constant [7 x i64] [i64 1000000, i64 100000, i64 10000, i64 1000, i64 100, i64 10, i64 1], align 16
@AdjustTimeForTypmod.TimeOffsets = internal constant [7 x i64] [i64 500000, i64 50000, i64 5000, i64 500, i64 50, i64 5, i64 0], align 16

; Function Attrs: inlinehint nounwind uwtable
define internal i64 @PointerGetDatum(ptr noundef %0) #4 {
  %2 = alloca ptr, align 8
  store ptr %0, ptr %2, align 8
  %3 = load ptr, ptr %2, align 8
  %4 = ptrtoint ptr %3 to i64
  ret i64 %4
}

; Function Attrs: inlinehint nounwind uwtable
define internal ptr @DatumGetPointer(i64 noundef %0) #4 {
  %2 = alloca i64, align 8
  store i64 %0, ptr %2, align 8
  %3 = load i64, ptr %2, align 8
  %4 = inttoptr i64 %3 to ptr
  ret ptr %4
}

; Function Attrs: inlinehint nounwind uwtable
define internal i64 @TimeTzADTPGetDatum(ptr noundef %0) #4 {
  %2 = alloca ptr, align 8
  store ptr %0, ptr %2, align 8
  %3 = load ptr, ptr %2, align 8
  %4 = call i64 @PointerGetDatum(ptr noundef %3)
  ret i64 %4
}

; Function Attrs: nounwind uwtable
define dso_local void @AdjustTimeForTypmod(ptr noundef %0, i32 noundef %1) #0 {
  %3 = alloca ptr, align 8
  %4 = alloca i32, align 4
  store ptr %0, ptr %3, align 8
  store i32 %1, ptr %4, align 4
  %5 = load i32, ptr %4, align 4
  %6 = icmp sge i32 %5, 0
  br i1 %6, label %7, label %55

7:                                                ; preds = %2
  %8 = load i32, ptr %4, align 4
  %9 = icmp sle i32 %8, 6
  br i1 %9, label %10, label %55

10:                                               ; preds = %7
  %11 = load ptr, ptr %3, align 8
  %12 = load i64, ptr %11, align 8
  %13 = icmp sge i64 %12, 0
  br i1 %13, label %14, label %33

14:                                               ; preds = %10
  %15 = load ptr, ptr %3, align 8
  %16 = load i64, ptr %15, align 8
  %17 = load i32, ptr %4, align 4
  %18 = sext i32 %17 to i64
  %19 = getelementptr inbounds [7 x i64], ptr @AdjustTimeForTypmod.TimeOffsets, i64 0, i64 %18
  %20 = load i64, ptr %19, align 8
  %21 = add i64 %16, %20
  %22 = load i32, ptr %4, align 4
  %23 = sext i32 %22 to i64
  %24 = getelementptr inbounds [7 x i64], ptr @AdjustTimeForTypmod.TimeScales, i64 0, i64 %23
  %25 = load i64, ptr %24, align 8
  %26 = sdiv i64 %21, %25
  %27 = load i32, ptr %4, align 4
  %28 = sext i32 %27 to i64
  %29 = getelementptr inbounds [7 x i64], ptr @AdjustTimeForTypmod.TimeScales, i64 0, i64 %28
  %30 = load i64, ptr %29, align 8
  %31 = mul i64 %26, %30
  %32 = load ptr, ptr %3, align 8
  store i64 %31, ptr %32, align 8
  br label %54

33:                                               ; preds = %10
  %34 = load ptr, ptr %3, align 8
  %35 = load i64, ptr %34, align 8
  %36 = sub i64 0, %35
  %37 = load i32, ptr %4, align 4
  %38 = sext i32 %37 to i64
  %39 = getelementptr inbounds [7 x i64], ptr @AdjustTimeForTypmod.TimeOffsets, i64 0, i64 %38
  %40 = load i64, ptr %39, align 8
  %41 = add i64 %36, %40
  %42 = load i32, ptr %4, align 4
  %43 = sext i32 %42 to i64
  %44 = getelementptr inbounds [7 x i64], ptr @AdjustTimeForTypmod.TimeScales, i64 0, i64 %43
  %45 = load i64, ptr %44, align 8
  %46 = sdiv i64 %41, %45
  %47 = load i32, ptr %4, align 4
  %48 = sext i32 %47 to i64
  %49 = getelementptr inbounds [7 x i64], ptr @AdjustTimeForTypmod.TimeScales, i64 0, i64 %48
  %50 = load i64, ptr %49, align 8
  %51 = mul i64 %46, %50
  %52 = sub i64 0, %51
  %53 = load ptr, ptr %3, align 8
  store i64 %52, ptr %53, align 8
  br label %54

54:                                               ; preds = %33, %14
  br label %55

55:                                               ; preds = %54, %7, %2
  ret void
}

; Function Attrs: inlinehint nounwind uwtable
define internal i32 @DatumGetInt32(i64 noundef %0) #4 {
  %2 = alloca i64, align 8
  store i64 %0, ptr %2, align 8
  %3 = load i64, ptr %2, align 8
  %4 = trunc i64 %3 to i32
  ret i32 %4
}

; Function Attrs: inlinehint nounwind uwtable
define internal ptr @DatumGetTimeTzADTP(i64 noundef %0) #4 {
  %2 = alloca i64, align 8
  store i64 %0, ptr %2, align 8
  %3 = load i64, ptr %2, align 8
  %4 = call ptr @DatumGetPointer(i64 noundef %3)
  ret ptr %4
}

; Function Attrs: nounwind uwtable
define dso_local i64 @timetz_scale(ptr noundef %0) #0 {
  %2 = alloca ptr, align 8
  %3 = alloca ptr, align 8
  %4 = alloca i32, align 4
  %5 = alloca ptr, align 8
  store ptr %0, ptr %2, align 8
  call void @llvm.lifetime.start.p0(i64 8, ptr %3) #9
  %6 = load ptr, ptr %2, align 8
  %7 = getelementptr inbounds nuw %struct.FunctionCallInfoBaseData, ptr %6, i32 0, i32 6
  %8 = getelementptr inbounds [0 x %struct.NullableDatum], ptr %7, i64 0, i64 0
  %9 = getelementptr inbounds nuw %struct.NullableDatum, ptr %8, i32 0, i32 0
  %10 = load i64, ptr %9, align 8
  %11 = call ptr @DatumGetTimeTzADTP(i64 noundef %10)
  store ptr %11, ptr %3, align 8
  call void @llvm.lifetime.start.p0(i64 4, ptr %4) #9
  %12 = load ptr, ptr %2, align 8
  %13 = getelementptr inbounds nuw %struct.FunctionCallInfoBaseData, ptr %12, i32 0, i32 6
  %14 = getelementptr inbounds [0 x %struct.NullableDatum], ptr %13, i64 0, i64 1
  %15 = getelementptr inbounds nuw %struct.NullableDatum, ptr %14, i32 0, i32 0
  %16 = load i64, ptr %15, align 8
  %17 = call i32 @DatumGetInt32(i64 noundef %16)
  store i32 %17, ptr %4, align 4
  call void @llvm.lifetime.start.p0(i64 8, ptr %5) #9
  %18 = call ptr @palloc(i64 noundef 16)
  store ptr %18, ptr %5, align 8
  %19 = load ptr, ptr %3, align 8
  %20 = getelementptr inbounds nuw %struct.TimeTzADT, ptr %19, i32 0, i32 0
  %21 = load i64, ptr %20, align 8
  %22 = load ptr, ptr %5, align 8
  %23 = getelementptr inbounds nuw %struct.TimeTzADT, ptr %22, i32 0, i32 0
  store i64 %21, ptr %23, align 8
  %24 = load ptr, ptr %3, align 8
  %25 = getelementptr inbounds nuw %struct.TimeTzADT, ptr %24, i32 0, i32 1
  %26 = load i32, ptr %25, align 8
  %27 = load ptr, ptr %5, align 8
  %28 = getelementptr inbounds nuw %struct.TimeTzADT, ptr %27, i32 0, i32 1
  store i32 %26, ptr %28, align 8
  %29 = load ptr, ptr %5, align 8
  %30 = getelementptr inbounds nuw %struct.TimeTzADT, ptr %29, i32 0, i32 0
  %31 = load i32, ptr %4, align 4
  call void @AdjustTimeForTypmod(ptr noundef %30, i32 noundef %31)
  %32 = load ptr, ptr %5, align 8
  %33 = call i64 @TimeTzADTPGetDatum(ptr noundef %32)
  call void @llvm.lifetime.end.p0(i64 8, ptr %5) #9
  call void @llvm.lifetime.end.p0(i64 4, ptr %4) #9
  call void @llvm.lifetime.end.p0(i64 8, ptr %3) #9
  ret i64 %33
}