; Function Attrs: nounwind uwtable
define dso_local noundef i64 @timetz_scale(ptr noundef readonly captures(none) %0) local_unnamed_addr #0 {
  %2 = getelementptr inbounds nuw i8, ptr %0, i64 32
  %3 = load i64, ptr %2, align 8
  %4 = inttoptr i64 %3 to ptr
  %5 = getelementptr inbounds nuw i8, ptr %0, i64 48
  %6 = load i64, ptr %5, align 8
  %7 = trunc i64 %6 to i32
  %8 = tail call ptr @palloc(i64 noundef 16) #16
  %9 = load i64, ptr %4, align 8
  store i64 %9, ptr %8, align 8
  %10 = getelementptr inbounds nuw i8, ptr %4, i64 8
  %11 = load i32, ptr %10, align 8
  %12 = getelementptr inbounds nuw i8, ptr %8, i64 8
  store i32 %11, ptr %12, align 8
  %or.cond.i = icmp ult i32 %7, 7
  br i1 %or.cond.i, label %13, label %AdjustTimeForTypmod.exit

13:                                               ; preds = %1
  %14 = icmp sgt i64 %9, -1
  %15 = and i64 %6, 7
  %16 = getelementptr inbounds nuw [7 x i64], ptr @AdjustTimeForTypmod.TimeOffsets, i64 0, i64 %15
  %17 = load i64, ptr %16, align 8
  %18 = getelementptr inbounds nuw [7 x i64], ptr @AdjustTimeForTypmod.TimeScales, i64 0, i64 %15
  %19 = load i64, ptr %18, align 8
  br i1 %14, label %20, label %24

20:                                               ; preds = %13
  %21 = add i64 %17, %9
  %.fr14.i = freeze i64 %21
  %22 = srem i64 %.fr14.i, %19
  %23 = sub nsw i64 %.fr14.i, %22
  br label %.sink.split.i

24:                                               ; preds = %13
  %25 = sub i64 %17, %9
  %.fr.i = freeze i64 %25
  %26 = srem i64 %.fr.i, %19
  %.neg.i = sub i64 %26, %.fr.i
  br label %.sink.split.i

.sink.split.i:                                    ; preds = %24, %20
  %.sink.i = phi i64 [ %23, %20 ], [ %.neg.i, %24 ]
  store i64 %.sink.i, ptr %8, align 8
  br label %AdjustTimeForTypmod.exit

AdjustTimeForTypmod.exit:                         ; preds = %1, %.sink.split.i
  %27 = ptrtoint ptr %8 to i64
  ret i64 %27
}